target datalayout = "e-m:e-p270:32:32-p271:32:32-p272:64:64-i64:64-i128:128-f80:128-n8:16:32:64-S128"
target triple = "x86_64-pc-linux-gnu"

%struct.FunctionCallInfoBaseData = type { ptr, ptr, ptr, i32, i8, i16, [0 x %struct.NullableDatum] }
%struct.NullableDatum = type { i64, i8 }
%struct.OSAPerGroupState = type { ptr, ptr, ptr, i64, i8 }
%struct.FmgrInfo = type { ptr, i32, i16, i8, i8, i8, ptr, ptr, ptr }
%struct.OSAPerQueryState = type { ptr, ptr, ptr, i8, ptr, ptr, i32, ptr, ptr, ptr, ptr, ptr, ptr, i32, i16, i8, i8, i32, i32, i32, i8, %struct.FmgrInfo }

@InterruptPending = external global i32, align 4

; Function Attrs: inlinehint nounwind uwtable
define internal zeroext i1 @DatumGetBool(i64 noundef %0) #2 {
  %2 = alloca i64, align 8
  store i64 %0, ptr %2, align 8
  %3 = load i64, ptr %2, align 8
  %4 = icmp ne i64 %3, 0
  ret i1 %4
}

; Function Attrs: inlinehint nounwind uwtable
define internal ptr @DatumGetPointer(i64 noundef %0) #2 {
  %2 = alloca i64, align 8
  store i64 %0, ptr %2, align 8
  %3 = load i64, ptr %2, align 8
  %4 = inttoptr i64 %3 to ptr
  ret ptr %4
}

; Function Attrs: nounwind uwtable
define dso_local i64 @mode_final(ptr noundef %0) #0 {
  %2 = alloca i64, align 8
  %3 = alloca ptr, align 8
  %4 = alloca ptr, align 8
  %5 = alloca i64, align 8
  %6 = alloca i8, align 1
  %7 = alloca i64, align 8
  %8 = alloca i64, align 8
  %9 = alloca i64, align 8
  %10 = alloca i64, align 8
  %11 = alloca i8, align 1
  %12 = alloca ptr, align 8
  %13 = alloca i64, align 8
  %14 = alloca i64, align 8
  %15 = alloca i8, align 1
  %16 = alloca i32, align 4
  store ptr %0, ptr %3, align 8
  call void @llvm.lifetime.start.p0(i64 8, ptr %4) #8
  call void @llvm.lifetime.start.p0(i64 8, ptr %5) #8
  call void @llvm.lifetime.start.p0(i64 1, ptr %6) #8
  call void @llvm.lifetime.start.p0(i64 8, ptr %7) #8
  store i64 0, ptr %7, align 8
  call void @llvm.lifetime.start.p0(i64 8, ptr %8) #8
  store i64 0, ptr %8, align 8
  call void @llvm.lifetime.start.p0(i64 8, ptr %9) #8
  store i64 0, ptr %9, align 8
  call void @llvm.lifetime.start.p0(i64 8, ptr %10) #8
  store i64 0, ptr %10, align 8
  call void @llvm.lifetime.start.p0(i64 1, ptr %11) #8
  store i8 0, ptr %11, align 1
  call void @llvm.lifetime.start.p0(i64 8, ptr %12) #8
  call void @llvm.lifetime.start.p0(i64 8, ptr %13) #8
  store i64 0, ptr %13, align 8
  call void @llvm.lifetime.start.p0(i64 8, ptr %14) #8
  store i64 0, ptr %14, align 8
  call void @llvm.lifetime.start.p0(i64 1, ptr %15) #8
  %17 = load ptr, ptr %3, align 8
  %18 = getelementptr inbounds nuw %struct.FunctionCallInfoBaseData, ptr %17, i32 0, i32 6
  %19 = getelementptr inbounds [0 x %struct.NullableDatum], ptr %18, i64 0, i64 0
  %20 = getelementptr inbounds nuw %struct.NullableDatum, ptr %19, i32 0, i32 1
  %21 = load i8, ptr %20, align 8, !range !4, !noundef !5
  %22 = trunc i8 %21 to i1
  br i1 %22, label %23, label %29

23:                                               ; preds = %1
  br label %24

24:                                               ; preds = %23
  %25 = load ptr, ptr %3, align 8
  %26 = getelementptr inbounds nuw %struct.FunctionCallInfoBaseData, ptr %25, i32 0, i32 4
  store i8 1, ptr %26, align 4
  store i64 0, ptr %2, align 8
  store i32 1, ptr %16, align 4
  br label %194

27:                                               ; No predecessors!
  br label %28

28:                                               ; preds = %27
  br label %29

29:                                               ; preds = %28, %1
  %30 = load ptr, ptr %3, align 8
  %31 = getelementptr inbounds nuw %struct.FunctionCallInfoBaseData, ptr %30, i32 0, i32 6
  %32 = getelementptr inbounds [0 x %struct.NullableDatum], ptr %31, i64 0, i64 0
  %33 = getelementptr inbounds nuw %struct.NullableDatum, ptr %32, i32 0, i32 0
  %34 = load i64, ptr %33, align 8
  %35 = call ptr @DatumGetPointer(i64 noundef %34)
  store ptr %35, ptr %4, align 8
  %36 = load ptr, ptr %4, align 8
  %37 = getelementptr inbounds nuw %struct.OSAPerGroupState, ptr %36, i32 0, i32 3
  %38 = load i64, ptr %37, align 8
  %39 = icmp eq i64 %38, 0
  br i1 %39, label %40, label %46

40:                                               ; preds = %29
  br label %41

41:                                               ; preds = %40
  %42 = load ptr, ptr %3, align 8
  %43 = getelementptr inbounds nuw %struct.FunctionCallInfoBaseData, ptr %42, i32 0, i32 4
  store i8 1, ptr %43, align 4
  store i64 0, ptr %2, align 8
  store i32 1, ptr %16, align 4
  br label %194

44:                                               ; No predecessors!
  br label %45

45:                                               ; preds = %44
  br label %46

46:                                               ; preds = %45, %29
  %47 = load ptr, ptr %4, align 8
  %48 = getelementptr inbounds nuw %struct.OSAPerGroupState, ptr %47, i32 0, i32 0
  %49 = load ptr, ptr %48, align 8
  %50 = getelementptr inbounds nuw %struct.OSAPerQueryState, ptr %49, i32 0, i32 21
  store ptr %50, ptr %12, align 8
  %51 = load ptr, ptr %12, align 8
  %52 = getelementptr inbounds nuw %struct.FmgrInfo, ptr %51, i32 0, i32 1
  %53 = load i32, ptr %52, align 8
  %54 = icmp ne i32 %53, 0
  br i1 %54, label %68, label %55

55:                                               ; preds = %46
  %56 = load ptr, ptr %4, align 8
  %57 = getelementptr inbounds nuw %struct.OSAPerGroupState, ptr %56, i32 0, i32 0
  %58 = load ptr, ptr %57, align 8
  %59 = getelementptr inbounds nuw %struct.OSAPerQueryState, ptr %58, i32 0, i32 18
  %60 = load i32, ptr %59, align 4
  %61 = call i32 @get_opcode(i32 noundef %60)
  %62 = load ptr, ptr %12, align 8
  %63 = load ptr, ptr %4, align 8
  %64 = getelementptr inbounds nuw %struct.OSAPerGroupState, ptr %63, i32 0, i32 0
  %65 = load ptr, ptr %64, align 8
  %66 = getelementptr inbounds nuw %struct.OSAPerQueryState, ptr %65, i32 0, i32 1
  %67 = load ptr, ptr %66, align 8
  call void @fmgr_info_cxt(i32 noundef %61, ptr noundef %62, ptr noundef %67)
  br label %68

68:                                               ; preds = %55, %46
  %69 = load ptr, ptr %4, align 8
  %70 = getelementptr inbounds nuw %struct.OSAPerGroupState, ptr %69, i32 0, i32 0
  %71 = load ptr, ptr %70, align 8
  %72 = getelementptr inbounds nuw %struct.OSAPerQueryState, ptr %71, i32 0, i32 15
  %73 = load i8, ptr %72, align 2, !range !4, !noundef !5
  %74 = trunc i8 %73 to i1
  %75 = xor i1 %74, true
  %76 = zext i1 %75 to i8
  store i8 %76, ptr %15, align 1
  %77 = load ptr, ptr %4, align 8
  %78 = getelementptr inbounds nuw %struct.OSAPerGroupState, ptr %77, i32 0, i32 4
  %79 = load i8, ptr %78, align 8, !range !4, !noundef !5
  %80 = trunc i8 %79 to i1
  br i1 %80, label %87, label %81

81:                                               ; preds = %68
  %82 = load ptr, ptr %4, align 8
  %83 = getelementptr inbounds nuw %struct.OSAPerGroupState, ptr %82, i32 0, i32 2
  %84 = load ptr, ptr %83, align 8
  call void @tuplesort_performsort(ptr noundef %84)
  %85 = load ptr, ptr %4, align 8
  %86 = getelementptr inbounds nuw %struct.OSAPerGroupState, ptr %85, i32 0, i32 4
  store i8 1, ptr %86, align 8
  br label %91

87:                                               ; preds = %68
  %88 = load ptr, ptr %4, align 8
  %89 = getelementptr inbounds nuw %struct.OSAPerGroupState, ptr %88, i32 0, i32 2
  %90 = load ptr, ptr %89, align 8
  call void @tuplesort_rescan(ptr noundef %90)
  br label %91

91:                                               ; preds = %87, %81
  br label %92

92:                                               ; preds = %172, %100, %91
  %93 = load ptr, ptr %4, align 8
  %94 = getelementptr inbounds nuw %struct.OSAPerGroupState, ptr %93, i32 0, i32 2
  %95 = load ptr, ptr %94, align 8
  %96 = call zeroext i1 @tuplesort_getdatum(ptr noundef %95, i1 noundef zeroext true, i1 noundef zeroext true, ptr noundef %5, ptr noundef %6, ptr noundef %13)
  br i1 %96, label %97, label %173

97:                                               ; preds = %92
  %98 = load i8, ptr %6, align 1, !range !4, !noundef !5
  %99 = trunc i8 %98 to i1
  br i1 %99, label %100, label %101

100:                                              ; preds = %97
  br label %92, !llvm.loop !15

101:                                              ; preds = %97
  %102 = load i64, ptr %10, align 8
  %103 = icmp eq i64 %102, 0
  br i1 %103, label %104, label %107

104:                                              ; preds = %101
  %105 = load i64, ptr %5, align 8
  store i64 %105, ptr %9, align 8
  store i64 %105, ptr %7, align 8
  store i64 1, ptr %10, align 8
  store i64 1, ptr %8, align 8
  store i8 1, ptr %11, align 1
  %106 = load i64, ptr %13, align 8
  store i64 %106, ptr %14, align 8
  br label %161

107:                                              ; preds = %101
  %108 = load i64, ptr %13, align 8
  %109 = load i64, ptr %14, align 8
  %110 = icmp eq i64 %108, %109
  br i1 %110, label %111, label %148

111:                                              ; preds = %107
  %112 = load ptr, ptr %12, align 8
  %113 = load ptr, ptr %3, align 8
  %114 = getelementptr inbounds nuw %struct.FunctionCallInfoBaseData, ptr %113, i32 0, i32 3
  %115 = load i32, ptr %114, align 8
  %116 = load i64, ptr %5, align 8
  %117 = load i64, ptr %9, align 8
  %118 = call i64 @FunctionCall2Coll(ptr noundef %112, i32 noundef %115, i64 noundef %116, i64 noundef %117)
  %119 = call zeroext i1 @DatumGetBool(i64 noundef %118)
  br i1 %119, label %120, label %148

120:                                              ; preds = %111
  %121 = load i8, ptr %11, align 1, !range !4, !noundef !5
  %122 = trunc i8 %121 to i1
  br i1 %122, label %123, label %126

123:                                              ; preds = %120
  %124 = load i64, ptr %8, align 8
  %125 = add i64 %124, 1
  store i64 %125, ptr %8, align 8
  br label %141

126:                                              ; preds = %120
  %127 = load i64, ptr %10, align 8
  %128 = add i64 %127, 1
  store i64 %128, ptr %10, align 8
  %129 = load i64, ptr %8, align 8
  %130 = icmp sgt i64 %128, %129
  br i1 %130, label %131, label %140

131:                                              ; preds = %126
  %132 = load i8, ptr %15, align 1, !range !4, !noundef !5
  %133 = trunc i8 %132 to i1
  br i1 %133, label %134, label %137

134:                                              ; preds = %131
  %135 = load i64, ptr %7, align 8
  %136 = call ptr @DatumGetPointer(i64 noundef %135)
  call void @pfree(ptr noundef %136)
  br label %137

137:                                              ; preds = %134, %131
  %138 = load i64, ptr %9, align 8
  store i64 %138, ptr %7, align 8
  %139 = load i64, ptr %10, align 8
  store i64 %139, ptr %8, align 8
  store i8 1, ptr %11, align 1
  br label %140

140:                                              ; preds = %137, %126
  br label %141

141:                                              ; preds = %140, %123
  %142 = load i8, ptr %15, align 1, !range !4, !noundef !5
  %143 = trunc i8 %142 to i1
  br i1 %143, label %144, label %147

144:                                              ; preds = %141
  %145 = load i64, ptr %5, align 8
  %146 = call ptr @DatumGetPointer(i64 noundef %145)
  call void @pfree(ptr noundef %146)
  br label %147

147:                                              ; preds = %144, %141
  br label %160

148:                                              ; preds = %111, %107
  %149 = load i8, ptr %15, align 1, !range !4, !noundef !5
  %150 = trunc i8 %149 to i1
  br i1 %150, label %151, label %157

151:                                              ; preds = %148
  %152 = load i8, ptr %11, align 1, !range !4, !noundef !5
  %153 = trunc i8 %152 to i1
  br i1 %153, label %157, label %154

154:                                              ; preds = %151
  %155 = load i64, ptr %9, align 8
  %156 = call ptr @DatumGetPointer(i64 noundef %155)
  call void @pfree(ptr noundef %156)
  br label %157

157:                                              ; preds = %154, %151, %148
  %158 = load i64, ptr %5, align 8
  store i64 %158, ptr %9, align 8
  %159 = load i64, ptr %13, align 8
  store i64 %159, ptr %14, align 8
  store i64 1, ptr %10, align 8
  store i8 0, ptr %11, align 1
  br label %160

160:                                              ; preds = %157, %147
  br label %161

161:                                              ; preds = %160, %104
  br label %162

162:                                              ; preds = %161
  %163 = load volatile i32, ptr @InterruptPending, align 4
  %164 = icmp ne i32 %163, 0
  %165 = zext i1 %164 to i32
  %166 = sext i32 %165 to i64
  %167 = call i64 @llvm.expect.i64(i64 %166, i64 0)
  %168 = icmp ne i64 %167, 0
  br i1 %168, label %169, label %170

169:                                              ; preds = %162
  call void @ProcessInterrupts()
  br label %170

170:                                              ; preds = %169, %162
  br label %171

171:                                              ; preds = %170
  br label %172

172:                                              ; preds = %171
  br label %92, !llvm.loop !15

173:                                              ; preds = %92
  %174 = load i8, ptr %15, align 1, !range !4, !noundef !5
  %175 = trunc i8 %174 to i1
  br i1 %175, label %176, label %182

176:                                              ; preds = %173
  %177 = load i8, ptr %11, align 1, !range !4, !noundef !5
  %178 = trunc i8 %177 to i1
  br i1 %178, label %182, label %179

179:                                              ; preds = %176
  %180 = load i64, ptr %9, align 8
  %181 = call ptr @DatumGetPointer(i64 noundef %180)
  call void @pfree(ptr noundef %181)
  br label %182

182:                                              ; preds = %179, %176, %173
  %183 = load i64, ptr %8, align 8
  %184 = icmp ne i64 %183, 0
  br i1 %184, label %185, label %187

185:                                              ; preds = %182
  %186 = load i64, ptr %7, align 8
  store i64 %186, ptr %2, align 8
  store i32 1, ptr %16, align 4
  br label %194

187:                                              ; preds = %182
  br label %188

188:                                              ; preds = %187
  %189 = load ptr, ptr %3, align 8
  %190 = getelementptr inbounds nuw %struct.FunctionCallInfoBaseData, ptr %189, i32 0, i32 4
  store i8 1, ptr %190, align 4
  store i64 0, ptr %2, align 8
  store i32 1, ptr %16, align 4
  br label %194

191:                                              ; No predecessors!
  br label %192

192:                                              ; preds = %191
  br label %193

193:                                              ; preds = %192
  store i32 0, ptr %16, align 4
  br label %194

194:                                              ; preds = %193, %188, %185, %41, %24
  call void @llvm.lifetime.end.p0(i64 1, ptr %15) #8
  call void @llvm.lifetime.end.p0(i64 8, ptr %14) #8
  call void @llvm.lifetime.end.p0(i64 8, ptr %13) #8
  call void @llvm.lifetime.end.p0(i64 8, ptr %12) #8
  call void @llvm.lifetime.end.p0(i64 1, ptr %11) #8
  call void @llvm.lifetime.end.p0(i64 8, ptr %10) #8
  call void @llvm.lifetime.end.p0(i64 8, ptr %9) #8
  call void @llvm.lifetime.end.p0(i64 8, ptr %8) #8
  call void @llvm.lifetime.end.p0(i64 8, ptr %7) #8
  call void @llvm.lifetime.end.p0(i64 1, ptr %6) #8
  call void @llvm.lifetime.end.p0(i64 8, ptr %5) #8
  call void @llvm.lifetime.end.p0(i64 8, ptr %4) #8
  %195 = load i32, ptr %16, align 4
  switch i32 %195, label %198 [
    i32 0, label %196
    i32 1, label %196
  ]

196:                                              ; preds = %194, %194
  %197 = load i64, ptr %2, align 8
  ret i64 %197

198:                                              ; preds = %194
  unreachable
}