; Function Attrs: nounwind uwtable
define dso_local i64 @mode_final(ptr noundef captures(none) %0) local_unnamed_addr #0 {
  %2 = alloca i64, align 8
  %3 = alloca i8, align 1
  %4 = alloca i64, align 8
  call void @llvm.lifetime.start.p0(i64 8, ptr nonnull %2) #10
  call void @llvm.lifetime.start.p0(i64 1, ptr nonnull %3) #10
  call void @llvm.lifetime.start.p0(i64 8, ptr nonnull %4) #10
  store i64 0, ptr %4, align 8
  %5 = getelementptr inbounds nuw i8, ptr %0, i64 40
  %6 = load i8, ptr %5, align 8, !range !4, !noundef !5
  %7 = trunc nuw i8 %6 to i1
  br i1 %7, label %.sink.split, label %8

8:                                                ; preds = %1
  %9 = getelementptr inbounds nuw i8, ptr %0, i64 32
  %10 = load i64, ptr %9, align 8
  %11 = inttoptr i64 %10 to ptr
  %12 = getelementptr inbounds nuw i8, ptr %11, i64 24
  %13 = load i64, ptr %12, align 8
  %14 = icmp eq i64 %13, 0
  br i1 %14, label %.sink.split, label %15

15:                                               ; preds = %8
  %16 = load ptr, ptr %11, align 8
  %17 = getelementptr inbounds nuw i8, ptr %16, i64 128
  %18 = getelementptr inbounds nuw i8, ptr %16, i64 136
  %19 = load i32, ptr %18, align 8
  %.not = icmp eq i32 %19, 0
  br i1 %.not, label %20, label %27

20:                                               ; preds = %15
  %21 = getelementptr inbounds nuw i8, ptr %16, i64 116
  %22 = load i32, ptr %21, align 4
  %23 = tail call i32 @get_opcode(i32 noundef %22) #10
  %24 = load ptr, ptr %11, align 8
  %25 = getelementptr inbounds nuw i8, ptr %24, i64 8
  %26 = load ptr, ptr %25, align 8
  tail call void @fmgr_info_cxt(i32 noundef %23, ptr noundef nonnull %17, ptr noundef %26) #10
  %.pre = load ptr, ptr %11, align 8
  br label %27

27:                                               ; preds = %20, %15
  %28 = phi ptr [ %.pre, %20 ], [ %16, %15 ]
  %29 = getelementptr inbounds nuw i8, ptr %28, i64 110
  %30 = load i8, ptr %29, align 2, !range !4, !noundef !5
  %31 = trunc nuw i8 %30 to i1
  %32 = getelementptr inbounds nuw i8, ptr %11, i64 32
  %33 = load i8, ptr %32, align 8, !range !4, !noundef !5
  %34 = trunc nuw i8 %33 to i1
  %35 = getelementptr inbounds nuw i8, ptr %11, i64 16
  %36 = load ptr, ptr %35, align 8
  br i1 %34, label %38, label %37

37:                                               ; preds = %27
  tail call void @tuplesort_performsort(ptr noundef %36) #10
  store i8 1, ptr %32, align 8
  br label %39

38:                                               ; preds = %27
  tail call void @tuplesort_rescan(ptr noundef %36) #10
  br label %39

39:                                               ; preds = %38, %37
  %40 = getelementptr inbounds nuw i8, ptr %11, i64 16
  %41 = getelementptr inbounds nuw i8, ptr %0, i64 24
  br label %.outer

.outer:                                           ; preds = %.outer.backedge, %39
  %.050.ph = phi i64 [ 0, %39 ], [ %.252, %.outer.backedge ]
  %.048.ph = phi i64 [ 0, %39 ], [ %.149, %.outer.backedge ]
  %.045.ph = phi i64 [ 0, %39 ], [ %.247, %.outer.backedge ]
  %.042.ph = phi i8 [ 0, %39 ], [ %.244, %.outer.backedge ]
  %.040.ph = phi i64 [ 0, %39 ], [ %.2, %.outer.backedge ]
  %.039.ph = phi i64 [ 0, %39 ], [ %.1, %.outer.backedge ]
  br label %42

42:                                               ; preds = %.outer, %45
  %43 = load ptr, ptr %40, align 8
  %44 = call zeroext i1 @tuplesort_getdatum(ptr noundef %43, i1 noundef zeroext true, i1 noundef zeroext true, ptr noundef nonnull %2, ptr noundef nonnull %3, ptr noundef nonnull %4) #10
  br i1 %44, label %45, label %83

45:                                               ; preds = %42
  %46 = load i8, ptr %3, align 1, !range !4, !noundef !5
  %47 = trunc nuw i8 %46 to i1
  br i1 %47, label %42, label %48, !llvm.loop !15

48:                                               ; preds = %45
  %49 = icmp eq i64 %.045.ph, 0
  br i1 %49, label %50, label %53

50:                                               ; preds = %48
  %51 = load i64, ptr %2, align 8
  %52 = load i64, ptr %4, align 8
  br label %.thread

53:                                               ; preds = %48
  %54 = load i64, ptr %4, align 8
  %55 = icmp eq i64 %54, %.039.ph
  br i1 %55, label %56, label %73

56:                                               ; preds = %53
  %57 = load i32, ptr %41, align 8
  %58 = load i64, ptr %2, align 8
  %59 = call i64 @FunctionCall2Coll(ptr noundef nonnull %17, i32 noundef %57, i64 noundef %58, i64 noundef %.048.ph) #10
  %.not70 = icmp eq i64 %59, 0
  br i1 %.not70, label %73, label %60

60:                                               ; preds = %56
  %61 = trunc nuw i8 %.042.ph to i1
  br i1 %61, label %62, label %64

62:                                               ; preds = %60
  %63 = add i64 %.050.ph, 1
  br label %69

64:                                               ; preds = %60
  %65 = add i64 %.045.ph, 1
  %66 = icmp sgt i64 %65, %.050.ph
  br i1 %66, label %67, label %69

67:                                               ; preds = %64
  br i1 %31, label %.thread, label %.thread61

.thread61:                                        ; preds = %67
  %68 = inttoptr i64 %.040.ph to ptr
  call void @pfree(ptr noundef %68) #10
  br label %70

69:                                               ; preds = %64, %62
  %.151 = phi i64 [ %63, %62 ], [ %.050.ph, %64 ]
  %.146 = phi i64 [ %.045.ph, %62 ], [ %65, %64 ]
  %.143 = phi i8 [ 1, %62 ], [ 0, %64 ]
  br i1 %31, label %.thread, label %70

70:                                               ; preds = %.thread61, %69
  %.14169 = phi i64 [ %.048.ph, %.thread61 ], [ %.040.ph, %69 ]
  %.14368 = phi i8 [ 1, %.thread61 ], [ %.143, %69 ]
  %.14667 = phi i64 [ %65, %.thread61 ], [ %.146, %69 ]
  %.15166 = phi i64 [ %65, %.thread61 ], [ %.151, %69 ]
  %71 = load i64, ptr %2, align 8
  %72 = inttoptr i64 %71 to ptr
  call void @pfree(ptr noundef %72) #10
  br label %.thread

73:                                               ; preds = %56, %53
  br i1 %31, label %78, label %74

74:                                               ; preds = %73
  %75 = trunc nuw i8 %.042.ph to i1
  br i1 %75, label %78, label %76

76:                                               ; preds = %74
  %77 = inttoptr i64 %.048.ph to ptr
  call void @pfree(ptr noundef %77) #10
  br label %78

78:                                               ; preds = %76, %74, %73
  %79 = load i64, ptr %2, align 8
  %80 = load i64, ptr %4, align 8
  br label %.thread

.thread:                                          ; preds = %67, %50, %69, %70, %78
  %.252 = phi i64 [ 1, %50 ], [ %.15166, %70 ], [ %.151, %69 ], [ %.050.ph, %78 ], [ %65, %67 ]
  %.149 = phi i64 [ %51, %50 ], [ %.048.ph, %70 ], [ %.048.ph, %69 ], [ %79, %78 ], [ %.048.ph, %67 ]
  %.247 = phi i64 [ 1, %50 ], [ %.14667, %70 ], [ %.146, %69 ], [ 1, %78 ], [ %65, %67 ]
  %.244 = phi i8 [ 1, %50 ], [ %.14368, %70 ], [ %.143, %69 ], [ 0, %78 ], [ 1, %67 ]
  %.2 = phi i64 [ %51, %50 ], [ %.14169, %70 ], [ %.040.ph, %69 ], [ %.040.ph, %78 ], [ %.048.ph, %67 ]
  %.1 = phi i64 [ %52, %50 ], [ %.039.ph, %70 ], [ %.039.ph, %69 ], [ %80, %78 ], [ %.039.ph, %67 ]
  %81 = load volatile i32, ptr @InterruptPending, align 4
  %.not56 = icmp eq i32 %81, 0
  br i1 %.not56, label %.outer.backedge, label %82, !prof !16

82:                                               ; preds = %.thread
  call void @ProcessInterrupts() #10
  br label %.outer.backedge

.outer.backedge:                                  ; preds = %82, %.thread
  br label %.outer, !llvm.loop !15

83:                                               ; preds = %42
  br i1 %31, label %88, label %84

84:                                               ; preds = %83
  %85 = trunc nuw i8 %.042.ph to i1
  br i1 %85, label %88, label %86

86:                                               ; preds = %84
  %87 = inttoptr i64 %.048.ph to ptr
  call void @pfree(ptr noundef %87) #10
  br label %88

88:                                               ; preds = %86, %84, %83
  %.not55 = icmp eq i64 %.050.ph, 0
  br i1 %.not55, label %.sink.split, label %90

.sink.split:                                      ; preds = %88, %8, %1
  %89 = getelementptr inbounds nuw i8, ptr %0, i64 28
  store i8 1, ptr %89, align 4
  br label %90

90:                                               ; preds = %.sink.split, %88
  %.0 = phi i64 [ %.040.ph, %88 ], [ 0, %.sink.split ]
  call void @llvm.lifetime.end.p0(i64 8, ptr nonnull %4) #10
  call void @llvm.lifetime.end.p0(i64 1, ptr nonnull %3) #10
  call void @llvm.lifetime.end.p0(i64 8, ptr nonnull %2) #10
  ret i64 %.0
}